target datalayout = "e-m:e-p270:32:32-p271:32:32-p272:64:64-i64:64-i128:128-f80:128-n8:16:32:64-S128"
target triple = "x86_64-pc-linux-gnu"

%"struct.c4::yml::Callbacks" = type { ptr, ptr, ptr, ptr }
%"struct.c4::basic_substring.0" = type { ptr, i64 }
%"struct.c4::basic_substring" = type { ptr, i64 }
%"class.c4::yml::Tree" = type { ptr, i64, i64, i64, i64, %"struct.c4::basic_substring", i64, %"struct.c4::yml::Callbacks", [4 x %"struct.c4::yml::TagDirective"] }
%"struct.c4::yml::TagDirective" = type { %"struct.c4::basic_substring.0", %"struct.c4::basic_substring.0", i64 }
%"struct.c4::yml::NodeData" = type { %"struct.c4::yml::NodeType", %"struct.c4::yml::NodeScalar", %"struct.c4::yml::NodeScalar", i64, i64, i64, i64, i64 }
%"struct.c4::yml::NodeType" = type { i64 }
%"struct.c4::yml::NodeScalar" = type { %"struct.c4::basic_substring.0", %"struct.c4::basic_substring.0", %"struct.c4::basic_substring.0" }

; Function Attrs: inlinehint mustprogress nounwind uwtable
define linkonce_odr noundef ptr @_ZNK2c43yml4Tree2_pEm(ptr noundef nonnull align 8 dereferenceable(256) %0, i64 noundef %1) #3 comdat align 2 {
  %3 = alloca ptr, align 8
  %4 = alloca i64, align 8
  store ptr %0, ptr %3, align 8, !tbaa !96
  store i64 %1, ptr %4, align 8, !tbaa !15
  %5 = load ptr, ptr %3, align 8
  %6 = getelementptr inbounds nuw %"class.c4::yml::Tree", ptr %5, i32 0, i32 0
  %7 = load ptr, ptr %6, align 8, !tbaa !118
  %8 = load i64, ptr %4, align 8, !tbaa !15
  %9 = getelementptr inbounds nuw %"struct.c4::yml::NodeData", ptr %7, i64 %8
  ret ptr %9
}

; Function Attrs: mustprogress uwtable
define linkonce_odr noundef i64 @_ZNK2c43yml4Tree12next_siblingEm(ptr noundef nonnull align 8 dereferenceable(256) %0, i64 noundef %1) #1 comdat align 2 {
  %3 = alloca ptr, align 8
  %4 = alloca i64, align 8
  store ptr %0, ptr %3, align 8, !tbaa !96
  store i64 %1, ptr %4, align 8, !tbaa !15
  %5 = load ptr, ptr %3, align 8
  %6 = load i64, ptr %4, align 8, !tbaa !15
  %7 = call noundef ptr @_ZNK2c43yml4Tree2_pEm(ptr noundef nonnull align 8 dereferenceable(256) %5, i64 noundef %6)
  %8 = getelementptr inbounds nuw %"struct.c4::yml::NodeData", ptr %7, i32 0, i32 6
  %9 = load i64, ptr %8, align 8, !tbaa !127
  ret i64 %9
}

; Function Attrs: mustprogress uwtable
define linkonce_odr noundef i64 @_ZNK2c43yml4Tree11first_childEm(ptr noundef nonnull align 8 dereferenceable(256) %0, i64 noundef %1) #1 comdat align 2 {
  %3 = alloca ptr, align 8
  %4 = alloca i64, align 8
  store ptr %0, ptr %3, align 8, !tbaa !96
  store i64 %1, ptr %4, align 8, !tbaa !15
  %5 = load ptr, ptr %3, align 8
  %6 = load i64, ptr %4, align 8, !tbaa !15
  %7 = call noundef ptr @_ZNK2c43yml4Tree2_pEm(ptr noundef nonnull align 8 dereferenceable(256) %5, i64 noundef %6)
  %8 = getelementptr inbounds nuw %"struct.c4::yml::NodeData", ptr %7, i32 0, i32 4
  %9 = load i64, ptr %8, align 8, !tbaa !146
  ret i64 %9
}

; Function Attrs: mustprogress uwtable
define noundef i64 @_ZNK2c43yml4Tree9child_posEmm(ptr noundef nonnull align 8 dereferenceable(256) %0, i64 noundef %1, i64 noundef %2) #1 align 2 {
  %4 = alloca i64, align 8
  %5 = alloca ptr, align 8
  %6 = alloca i64, align 8
  %7 = alloca i64, align 8
  %8 = alloca i64, align 8
  %9 = alloca i64, align 8
  %10 = alloca i32, align 4
  store ptr %0, ptr %5, align 8, !tbaa !96
  store i64 %1, ptr %6, align 8, !tbaa !15
  store i64 %2, ptr %7, align 8, !tbaa !15
  %11 = load ptr, ptr %5, align 8
  call void @llvm.lifetime.start.p0(i64 8, ptr %8) #25
  store i64 0, ptr %8, align 8, !tbaa !15
  call void @llvm.lifetime.start.p0(i64 8, ptr %9) #25
  %12 = load i64, ptr %6, align 8, !tbaa !15
  %13 = call noundef i64 @_ZNK2c43yml4Tree11first_childEm(ptr noundef nonnull align 8 dereferenceable(256) %11, i64 noundef %12)
  store i64 %13, ptr %9, align 8, !tbaa !15
  br label %14

14:                                               ; preds = %27, %3
  %15 = load i64, ptr %9, align 8, !tbaa !15
  %16 = icmp ne i64 %15, -1
  br i1 %16, label %18, label %17

17:                                               ; preds = %14
  store i32 2, ptr %10, align 4
  br label %30

18:                                               ; preds = %14
  %19 = load i64, ptr %9, align 8, !tbaa !15
  %20 = load i64, ptr %7, align 8, !tbaa !15
  %21 = icmp eq i64 %19, %20
  br i1 %21, label %22, label %24

22:                                               ; preds = %18
  %23 = load i64, ptr %8, align 8, !tbaa !15
  store i64 %23, ptr %4, align 8
  store i32 1, ptr %10, align 4
  br label %30

24:                                               ; preds = %18
  %25 = load i64, ptr %8, align 8, !tbaa !15
  %26 = add i64 %25, 1
  store i64 %26, ptr %8, align 8, !tbaa !15
  br label %27

27:                                               ; preds = %24
  %28 = load i64, ptr %9, align 8, !tbaa !15
  %29 = call noundef i64 @_ZNK2c43yml4Tree12next_siblingEm(ptr noundef nonnull align 8 dereferenceable(256) %11, i64 noundef %28)
  store i64 %29, ptr %9, align 8, !tbaa !15
  br label %14, !llvm.loop !185

30:                                               ; preds = %22, %17
  call void @llvm.lifetime.end.p0(i64 8, ptr %9) #25
  %31 = load i32, ptr %10, align 4
  switch i32 %31, label %33 [
    i32 2, label %32
  ]

32:                                               ; preds = %30
  store i64 -1, ptr %4, align 8
  store i32 1, ptr %10, align 4
  br label %33

33:                                               ; preds = %32, %30
  call void @llvm.lifetime.end.p0(i64 8, ptr %8) #25
  %34 = load i64, ptr %4, align 8
  ret i64 %34
}