; Function Attrs: mustprogress nofree norecurse nosync nounwind willreturn memory(read, inaccessiblemem: none) uwtable
define noundef i64 @_ZNK2c43yml4Tree9child_posEmm(ptr noundef nonnull readonly align 8 captures(none) dereferenceable(256) %0, i64 noundef %1, i64 noundef %2) local_unnamed_addr #29 align 2 {
  %4 = load ptr, ptr %0, align 8, !tbaa !116
  %5 = getelementptr inbounds nuw %"struct.c4::yml::NodeData", ptr %4, i64 %1, i32 4
  %.0912 = load i64, ptr %5, align 8, !tbaa !68
  %.not13 = icmp eq i64 %.0912, -1
  br i1 %.not13, label %._crit_edge, label %.lr.ph

.lr.ph:                                           ; preds = %3, %7
  %.0915 = phi i64 [ %.09, %7 ], [ %.0912, %3 ]
  %.01014 = phi i64 [ %8, %7 ], [ 0, %3 ]
  %6 = icmp eq i64 %.0915, %2
  br i1 %6, label %._crit_edge, label %7

7:                                                ; preds = %.lr.ph
  %8 = add i64 %.01014, 1
  %9 = getelementptr inbounds nuw %"struct.c4::yml::NodeData", ptr %4, i64 %.0915, i32 6
  %.09 = load i64, ptr %9, align 8, !tbaa !68
  %.not = icmp eq i64 %.09, -1
  br i1 %.not, label %._crit_edge, label %.lr.ph, !llvm.loop !200

._crit_edge:                                      ; preds = %7, %.lr.ph, %3
  %spec.select = phi i64 [ -1, %3 ], [ %.01014, %.lr.ph ], [ -1, %7 ]
  ret i64 %spec.select
}